; ModuleID = '49/1375.c'
source_filename = "49/1375.c"
target datalayout = "e-m:e-p270:32:32-p271:32:32-p272:64:64-i64:64-f80:128-n8:16:32:64-S128"
target triple = "x86_64-pc-linux-gnu"

@.str = private unnamed_addr constant [3 x i8] c"%s\00", align 1
@.str.1 = private unnamed_addr constant [6 x i8] c"%c%c\0A\00", align 1
@.str.2 = private unnamed_addr constant [3 x i8] c"%c\00", align 1
@.str.3 = private unnamed_addr constant [2 x i8] c"\0A\00", align 1

; Function Attrs: noinline nounwind uwtable
define dso_local i32 @main() #0 {
  %1 = alloca i32, align 4
  %2 = alloca [501 x i8], align 16
  %3 = alloca i32, align 4
  %4 = alloca i32, align 4
  %5 = alloca i32, align 4
  %6 = alloca i32, align 4
  %7 = alloca i32, align 4
  %8 = alloca i32, align 4
  %9 = alloca i32, align 4
  %10 = alloca i32, align 4
  store i32 0, i32* %1, align 4
  %11 = getelementptr inbounds [501 x i8], [501 x i8]* %2, i64 0, i64 0
  %12 = call i32 (i8*, ...) @__isoc99_scanf(i8* getelementptr inbounds ([3 x i8], [3 x i8]* @.str, i64 0, i64 0), i8* %11)
  %13 = getelementptr inbounds [501 x i8], [501 x i8]* %2, i64 0, i64 0
  %14 = call i64 @strlen(i8* %13) #3
  %15 = trunc i64 %14 to i32
  store i32 %15, i32* %4, align 4
  store i32 0, i32* %5, align 4
  br label %16

16:                                               ; preds = %48, %0
  %17 = load i32, i32* %5, align 4
  %18 = add nsw i32 %17, 1
  %19 = load i32, i32* %4, align 4
  %20 = icmp slt i32 %18, %19
  br i1 %20, label %21, label %51

21:                                               ; preds = %16
  %22 = load i32, i32* %5, align 4
  %23 = sext i32 %22 to i64
  %24 = getelementptr inbounds [501 x i8], [501 x i8]* %2, i64 0, i64 %23
  %25 = load i8, i8* %24, align 1
  %26 = sext i8 %25 to i32
  %27 = load i32, i32* %5, align 4
  %28 = add nsw i32 %27, 1
  %29 = sext i32 %28 to i64
  %30 = getelementptr inbounds [501 x i8], [501 x i8]* %2, i64 0, i64 %29
  %31 = load i8, i8* %30, align 1
  %32 = sext i8 %31 to i32
  %33 = icmp eq i32 %26, %32
  br i1 %33, label %34, label %47

34:                                               ; preds = %21
  %35 = load i32, i32* %5, align 4
  %36 = sext i32 %35 to i64
  %37 = getelementptr inbounds [501 x i8], [501 x i8]* %2, i64 0, i64 %36
  %38 = load i8, i8* %37, align 1
  %39 = sext i8 %38 to i32
  %40 = load i32, i32* %5, align 4
  %41 = add nsw i32 %40, 1
  %42 = sext i32 %41 to i64
  %43 = getelementptr inbounds [501 x i8], [501 x i8]* %2, i64 0, i64 %42
  %44 = load i8, i8* %43, align 1
  %45 = sext i8 %44 to i32
  %46 = call i32 (i8*, ...) @printf(i8* getelementptr inbounds ([6 x i8], [6 x i8]* @.str.1, i64 0, i64 0), i32 %39, i32 %45)
  br label %47

47:                                               ; preds = %34, %21
  br label %48

48:                                               ; preds = %47
  %49 = load i32, i32* %5, align 4
  %50 = add nsw i32 %49, 1
  store i32 %50, i32* %5, align 4
  br label %16

51:                                               ; preds = %16
  store i32 3, i32* %3, align 4
  br label %52

52:                                               ; preds = %140, %51
  %53 = load i32, i32* %3, align 4
  %54 = load i32, i32* %4, align 4
  %55 = icmp sle i32 %53, %54
  br i1 %55, label %56, label %143

56:                                               ; preds = %52
  store i32 0, i32* %5, align 4
  br label %57

57:                                               ; preds = %136, %56
  %58 = load i32, i32* %5, align 4
  %59 = load i32, i32* %3, align 4
  %60 = add nsw i32 %58, %59
  %61 = sub nsw i32 %60, 1
  %62 = load i32, i32* %4, align 4
  %63 = icmp slt i32 %61, %62
  br i1 %63, label %64, label %139

64:                                               ; preds = %57
  %65 = load i32, i32* %5, align 4
  store i32 %65, i32* %9, align 4
  %66 = load i32, i32* %5, align 4
  %67 = load i32, i32* %3, align 4
  %68 = add nsw i32 %66, %67
  %69 = sub nsw i32 %68, 1
  store i32 %69, i32* %10, align 4
  %70 = load i32, i32* %5, align 4
  %71 = load i32, i32* %3, align 4
  %72 = add nsw i32 %70, %71
  %73 = sub nsw i32 %72, 1
  store i32 %73, i32* %6, align 4
  %74 = load i32, i32* %5, align 4
  store i32 %74, i32* %7, align 4
  br label %75

75:                                               ; preds = %97, %64
  %76 = load i32, i32* %7, align 4
  %77 = load i32, i32* %6, align 4
  %78 = icmp sle i32 %76, %77
  br i1 %78, label %79, label %98

79:                                               ; preds = %75
  %80 = load i32, i32* %7, align 4
  %81 = sext i32 %80 to i64
  %82 = getelementptr inbounds [501 x i8], [501 x i8]* %2, i64 0, i64 %81
  %83 = load i8, i8* %82, align 1
  %84 = sext i8 %83 to i32
  %85 = load i32, i32* %6, align 4
  %86 = sext i32 %85 to i64
  %87 = getelementptr inbounds [501 x i8], [501 x i8]* %2, i64 0, i64 %86
  %88 = load i8, i8* %87, align 1
  %89 = sext i8 %88 to i32
  %90 = icmp eq i32 %84, %89
  br i1 %90, label %91, label %96

91:                                               ; preds = %79
  %92 = load i32, i32* %7, align 4
  %93 = add nsw i32 %92, 1
  store i32 %93, i32* %7, align 4
  %94 = load i32, i32* %6, align 4
  %95 = add nsw i32 %94, -1
  store i32 %95, i32* %6, align 4
  br label %97

96:                                               ; preds = %79
  br label %98

97:                                               ; preds = %91
  br label %75

98:                                               ; preds = %96, %75
  %99 = load i32, i32* %3, align 4
  %100 = srem i32 %99, 2
  %101 = icmp eq i32 %100, 0
  br i1 %101, label %102, label %107

102:                                              ; preds = %98
  %103 = load i32, i32* %7, align 4
  %104 = sub nsw i32 %103, 1
  %105 = load i32, i32* %6, align 4
  %106 = icmp eq i32 %104, %105
  br i1 %106, label %117, label %107

107:                                              ; preds = %102, %98
  %108 = load i32, i32* %3, align 4
  %109 = srem i32 %108, 2
  %110 = icmp eq i32 %109, 1
  br i1 %110, label %111, label %134

111:                                              ; preds = %107
  %112 = load i32, i32* %7, align 4
  %113 = sub nsw i32 %112, 1
  %114 = load i32, i32* %6, align 4
  %115 = add nsw i32 %114, 1
  %116 = icmp eq i32 %113, %115
  br i1 %116, label %117, label %134

117:                                              ; preds = %111, %102
  %118 = load i32, i32* %9, align 4
  store i32 %118, i32* %8, align 4
  br label %119

119:                                              ; preds = %130, %117
  %120 = load i32, i32* %8, align 4
  %121 = load i32, i32* %10, align 4
  %122 = icmp sle i32 %120, %121
  br i1 %122, label %123, label %133

123:                                              ; preds = %119
  %124 = load i32, i32* %8, align 4
  %125 = sext i32 %124 to i64
  %126 = getelementptr inbounds [501 x i8], [501 x i8]* %2, i64 0, i64 %125
  %127 = load i8, i8* %126, align 1
  %128 = sext i8 %127 to i32
  %129 = call i32 (i8*, ...) @printf(i8* getelementptr inbounds ([3 x i8], [3 x i8]* @.str.2, i64 0, i64 0), i32 %128)
  br label %130

130:                                              ; preds = %123
  %131 = load i32, i32* %8, align 4
  %132 = add nsw i32 %131, 1
  store i32 %132, i32* %8, align 4
  br label %119

133:                                              ; preds = %119
  br label %134

134:                                              ; preds = %133, %111, %107
  %135 = call i32 (i8*, ...) @printf(i8* getelementptr inbounds ([2 x i8], [2 x i8]* @.str.3, i64 0, i64 0))
  br label %136

136:                                              ; preds = %134
  %137 = load i32, i32* %5, align 4
  %138 = add nsw i32 %137, 1
  store i32 %138, i32* %5, align 4
  br label %57

139:                                              ; preds = %57
  br label %140

140:                                              ; preds = %139
  %141 = load i32, i32* %3, align 4
  %142 = add nsw i32 %141, 1
  store i32 %142, i32* %3, align 4
  br label %52

143:                                              ; preds = %52
  ret i32 0
}

declare dso_local i32 @__isoc99_scanf(i8*, ...) #1

; Function Attrs: nounwind readonly
declare dso_local i64 @strlen(i8*) #2

declare dso_local i32 @printf(i8*, ...) #1


!llvm.module.flags = !{!0}
!llvm.ident = !{!1}

!0 = !{i32 1, !"wchar_size", i32 4}
!1 = !{!"clang version 10.0.0-4ubuntu1 "}
